Certificate:
    Data:
        Version: 3 (0x2)
        Serial Number: 4098 (0x1002)
        Signature Algorithm: sha256WithRSAEncryption
        Issuer: C=AU, ST=Some-State, O=Internet Widgits Pty Ltd
        Validity
            Not Before: Jun  4 17:48:17 2022 GMT
            Not After : Jun  1 17:48:17 2032 GMT
        Subject: CN=pinto2022.com
        Subject Public Key Info:
            Public Key Algorithm: rsaEncryption
                RSA Public-Key: (2048 bit)
                Modulus:
                    00:eb:89:bb:7a:12:0e:fe:f7:04:5b:be:6b:69:fc:
                    ae:b5:f2:34:25:aa:9c:76:b3:48:87:82:f0:a9:96:
                    3c:d9:39:e3:97:c7:c4:52:43:e5:64:ec:3e:73:84:
                    16:e8:e5:95:51:0a:71:7c:cc:47:0d:55:96:ee:b0:
                    b9:54:73:f3:3a:65:a4:39:fc:73:64:46:62:91:b5:
                    01:f5:3d:10:e4:e4:2d:e1:b0:ef:8e:26:af:09:de:
                    5c:b3:f8:01:14:01:5b:ff:fd:88:e1:ae:c5:69:ce:
                    0c:39:e7:1d:d4:96:15:2b:76:26:0e:aa:d8:a1:76:
                    78:e7:36:c4:f7:0d:ee:01:51:6d:e2:04:10:e0:66:
                    d1:df:34:a1:02:1d:e1:4d:5a:74:c0:4c:f7:54:d2:
                    88:f7:62:67:76:36:3b:4d:95:7d:d2:2a:4b:24:21:
                    7f:ea:a2:6d:6b:64:e7:52:75:b5:05:e5:de:31:98:
                    26:39:49:93:ef:07:5c:46:11:ae:e7:71:76:27:3d:
                    4f:5d:98:c0:09:20:3b:ba:c4:38:98:4f:a5:47:62:
                    0d:7c:66:f4:84:8b:50:6f:34:63:9a:cf:7c:62:e1:
                    35:8d:45:11:05:db:c5:69:b8:8e:09:86:9f:13:ca:
                    84:c1:b3:3f:ce:ae:b7:e3:b1:30:d5:ea:2d:29:39:
                    7c:4f
                Exponent: 65537 (0x10001)
        X509v3 extensions:
            X509v3 Basic Constraints: 
                CA:FALSE
            Netscape Comment: 
                OpenSSL Generated Certificate
            X509v3 Subject Key Identifier: 
                99:8A:C9:55:88:BC:8B:16:AD:5B:32:51:1F:4C:5D:AD:C1:EB:A5:2D
            X509v3 Authority Key Identifier: 
                keyid:56:BF:23:BA:2A:DA:AD:92:6D:DB:27:55:C9:91:5C:0E:AC:14:B4:41

    Signature Algorithm: sha256WithRSAEncryption
         44:ff:b0:f9:55:40:83:19:23:65:b5:ce:d8:80:0e:d6:c0:10:
         32:00:94:cb:38:d9:16:a7:a7:91:26:53:24:15:d3:36:ea:de:
         75:14:60:22:f0:d0:c7:b0:0a:d8:5b:9d:3f:c1:dc:b2:50:b2:
         56:a4:6c:33:46:2b:eb:c6:f5:27:d4:aa:89:d3:8f:a2:6b:05:
         73:24:b8:5d:8e:f7:e1:21:a5:37:da:4f:78:98:bb:d5:f6:19:
         b3:f8:7f:b2:60:63:a9:02:29:f3:b7:66:ae:97:7d:e1:38:93:
         73:e7:70:2e:b1:72:c4:ab:36:d7:af:e2:63:d6:00:cd:a4:9f:
         70:72:23:90:11:55:e5:21:7f:d1:07:1d:43:b8:2b:81:0c:cf:
         d6:75:4f:71:95:69:fc:c0:9c:47:6d:f9:ec:02:09:a4:e0:d3:
         e8:d2:d9:51:16:2c:91:7c:c7:47:68:e0:d0:a7:0f:f8:e5:4c:
         8f:8c:92:65:e9:db:c7:29:c1:70:0e:e6:c9:c1:4b:b5:57:f1:
         c0:44:b0:12:69:af:f3:28:9a:43:5b:5d:68:f2:69:a0:00:02:
         fc:9a:89:a7:77:85:be:77:29:f3:5e:a0:ca:04:33:9f:ce:5d:
         1c:72:a2:aa:d6:6e:66:04:d4:d5:8f:9d:19:b7:1a:89:ac:30:
         af:95:09:42:92:84:0c:18:04:41:a2:23:93:43:73:58:3a:38:
         65:30:32:b9:5f:60:b0:2f:28:4f:19:be:95:8c:17:9e:02:06:
         23:e0:61:0f:42:f3:c9:03:b5:8c:4f:d4:2a:9a:6e:b0:6e:82:
         ff:14:40:ef:30:0f:dc:75:66:fa:92:65:54:dc:22:8c:bb:37:
         61:ac:6d:15:5b:e0:8a:22:20:ac:3a:3f:96:ee:c7:10:25:8b:
         cf:b3:74:f6:90:e3:66:76:69:54:93:d8:11:6b:6f:f2:fe:1a:
         23:a2:0d:58:11:d1:46:6e:1d:c4:1a:c8:7b:d5:aa:2e:69:36:
         74:00:e6:ce:c4:90:a1:ce:8e:0e:74:8c:dc:93:7f:64:9a:07:
         5e:c8:db:c6:b9:68:9f:23:01:bd:c0:d7:b5:19:63:6d:91:aa:
         6f:e5:db:14:ae:84:fe:a1:f6:39:73:a1:3d:15:1a:c4:ba:62:
         e5:e9:b9:69:58:a0:de:ca:cd:87:88:97:6a:d1:0d:d3:a0:78:
         b5:30:5b:50:53:2a:50:6a:b1:f3:88:1e:1f:58:83:ad:d1:ef:
         7b:aa:96:52:a6:52:5e:d4:0a:83:1a:96:68:87:c8:f2:06:a3:
         07:0d:f2:e0:6d:bb:36:f0:fb:3f:b4:66:71:3c:42:19:53:0a:
         d8:7a:cd:9e:5e:f4:a1:0a
-----BEGIN CERTIFICATE-----
MIIEVDCCAjygAwIBAgICEAIwDQYJKoZIhvcNAQELBQAwRTELMAkGA1UEBhMCQVUx
EzARBgNVBAgMClNvbWUtU3RhdGUxITAfBgNVBAoMGEludGVybmV0IFdpZGdpdHMg
UHR5IEx0ZDAeFw0yMjA2MDQxNzQ4MTdaFw0zMjA2MDExNzQ4MTdaMBgxFjAUBgNV
BAMMDXBpbnRvMjAyMi5jb20wggEiMA0GCSqGSIb3DQEBAQUAA4IBDwAwggEKAoIB
AQDribt6Eg7+9wRbvmtp/K618jQlqpx2s0iHgvCpljzZOeOXx8RSQ+Vk7D5zhBbo
5ZVRCnF8zEcNVZbusLlUc/M6ZaQ5/HNkRmKRtQH1PRDk5C3hsO+OJq8J3lyz+AEU
AVv//YjhrsVpzgw55x3UlhUrdiYOqtihdnjnNsT3De4BUW3iBBDgZtHfNKECHeFN
WnTATPdU0oj3Ymd2NjtNlX3SKkskIX/qom1rZOdSdbUF5d4xmCY5SZPvB1xGEa7n
cXYnPU9dmMAJIDu6xDiYT6VHYg18ZvSEi1BvNGOaz3xi4TWNRREF28VpuI4Jhp8T
yoTBsz/OrrfjsTDV6i0pOXxPAgMBAAGjezB5MAkGA1UdEwQCMAAwLAYJYIZIAYb4
QgENBB8WHU9wZW5TU0wgR2VuZXJhdGVkIENlcnRpZmljYXRlMB0GA1UdDgQWBBSZ
islViLyLFq1bMlEfTF2tweulLTAfBgNVHSMEGDAWgBRWvyO6Ktqtkm3bJ1XJkVwO
rBS0QTANBgkqhkiG9w0BAQsFAAOCAgEARP+w+VVAgxkjZbXO2IAO1sAQMgCUyzjZ
FqenkSZTJBXTNuredRRgIvDQx7AK2FudP8HcslCyVqRsM0Yr68b1J9SqidOPomsF
cyS4XY734SGlN9pPeJi71fYZs/h/smBjqQIp87dmrpd94TiTc+dwLrFyxKs216/i
Y9YAzaSfcHIjkBFV5SF/0QcdQ7grgQzP1nVPcZVp/MCcR2357AIJpODT6NLZURYs
kXzHR2jg0KcP+OVMj4ySZenbxynBcA7mycFLtVfxwESwEmmv8yiaQ1tdaPJpoAAC
/JqJp3eFvncp816gygQzn85dHHKiqtZuZgTU1Y+dGbcaiawwr5UJQpKEDBgEQaIj
k0NzWDo4ZTAyuV9gsC8oTxm+lYwXngIGI+BhD0LzyQO1jE/UKppusG6C/xRA7zAP
3HVm+pJlVNwijLs3YaxtFVvgiiIgrDo/lu7HECWLz7N09pDjZnZpVJPYEWtv8v4a
I6INWBHRRm4dxBrIe9WqLmk2dADmzsSQoc6ODnSM3JN/ZJoHXsjbxrlonyMBvcDX
tRljbZGqb+XbFK6E/qH2OXOhPRUaxLpi5em5aVig3srNh4iXatEN06B4tTBbUFMq
UGqx84geH1iDrdHve6qWUqZSXtQKgxqWaIfI8gajBw3y4G27NvD7P7RmcTxCGVMK
2HrNnl70oQo=
-----END CERTIFICATE-----
