Certificate:
    Data:
        Version: 3 (0x2)
        Serial Number: 4100 (0x1004)
        Signature Algorithm: sha256WithRSAEncryption
        Issuer: C=AU, ST=Some-State, O=Internet Widgits Pty Ltd
        Validity
            Not Before: Jun  4 19:30:31 2022 GMT
            Not After : Jun  1 19:30:31 2032 GMT
        Subject: C=AU, ST=Some-State, O=Internet Widgits Pty Ltd, CN=www.pinto2022.com
        Subject Public Key Info:
            Public Key Algorithm: rsaEncryption
                RSA Public-Key: (2048 bit)
                Modulus:
                    00:e0:ab:99:6b:b7:1c:46:f1:13:09:e5:01:c8:47:
                    1b:2b:11:89:06:2f:bf:a8:3d:ab:53:8e:08:57:5b:
                    f5:5f:67:9d:ea:db:d8:48:fe:fa:26:66:1f:bc:e5:
                    0e:58:c7:7b:d7:a1:e5:ed:72:0e:2b:70:85:6d:2b:
                    b9:e5:e9:69:96:5f:11:72:ec:3c:5d:d4:29:47:4d:
                    64:7b:93:e4:5b:02:22:e9:a2:c5:46:8b:e4:c6:8d:
                    ba:09:de:10:53:ca:1d:ef:ca:2e:f5:0b:36:d2:1a:
                    86:86:ec:43:f8:19:45:13:4f:b3:aa:33:16:de:7b:
                    b2:fc:d6:c9:bd:16:9c:02:e3:96:93:95:64:b0:f4:
                    91:68:e6:e0:58:0e:4c:56:14:3f:5f:02:59:c9:36:
                    7b:8a:98:11:07:6c:37:98:e3:f7:94:d7:75:ef:cf:
                    6b:49:6d:a1:56:35:fc:0b:6a:0a:84:75:a4:bb:94:
                    b7:f2:d3:04:09:b3:c1:8c:22:e7:c5:25:b7:59:47:
                    e3:bb:22:37:6b:8b:e9:a3:98:d2:e5:4e:e3:90:cf:
                    3d:88:fd:c0:67:93:9a:29:54:db:43:96:ef:09:10:
                    6a:4c:90:a1:dd:88:6a:4d:83:ea:25:3c:90:af:fb:
                    cb:e8:35:37:35:5a:1a:b3:c0:51:c3:c5:6a:62:bc:
                    99:bd
                Exponent: 65537 (0x10001)
        X509v3 extensions:
            X509v3 Basic Constraints: 
                CA:FALSE
            Netscape Comment: 
                OpenSSL Generated Certificate
            X509v3 Subject Key Identifier: 
                18:1B:4F:77:D5:E2:D0:78:37:1E:8C:94:F7:8C:04:D3:6C:8D:EF:05
            X509v3 Authority Key Identifier: 
                keyid:56:BF:23:BA:2A:DA:AD:92:6D:DB:27:55:C9:91:5C:0E:AC:14:B4:41

            X509v3 Subject Alternative Name: 
                DNS:www.pinto2022.com, DNS:www.pinto2022.org, DNS:*.pinto2022.com
    Signature Algorithm: sha256WithRSAEncryption
         52:64:12:4b:18:14:75:a3:38:ff:ea:4a:47:63:e7:76:7e:23:
         d9:86:bf:e4:70:79:88:eb:c2:31:96:74:d2:e2:67:44:3d:0a:
         6b:f3:a2:db:32:7e:f0:ce:f8:40:40:6f:66:e4:e6:bd:41:a2:
         c4:4d:10:01:3b:03:99:27:3c:00:58:18:cc:96:d0:fa:4b:ac:
         39:94:c4:86:6c:f7:5f:f6:60:c4:f4:06:96:d5:06:7e:b1:41:
         34:20:83:3b:b8:c4:69:96:bf:11:e5:40:5f:7e:d1:bd:8d:1c:
         e9:91:82:3d:6c:c9:13:40:ba:73:f2:92:a4:87:5f:25:2f:5f:
         00:e9:f9:06:f2:ce:af:88:98:7f:cc:c0:d0:73:55:ae:a1:e6:
         23:f7:be:09:b2:1d:d6:fa:85:58:16:7c:10:3f:ee:58:61:5f:
         67:4d:f4:df:79:9c:8b:80:4e:05:d0:61:ec:e8:c7:a5:7f:32:
         da:1e:d3:84:66:d5:0f:13:5c:e5:ae:54:bf:03:22:ed:60:aa:
         9b:e7:a6:73:4a:1a:07:56:58:ca:0e:50:59:2a:cf:90:6b:27:
         e8:86:73:29:d1:76:95:c9:46:7e:2e:6b:ab:bf:5f:ad:d1:fc:
         25:aa:ac:71:a2:5b:15:6c:9d:88:10:7f:ff:bb:79:81:1c:98:
         af:99:c0:b7:5a:26:99:6e:40:04:ff:9b:e7:14:47:f2:57:b9:
         10:67:f6:55:48:1b:31:e6:28:10:19:ec:c1:99:2b:61:fb:fb:
         3f:f1:e0:b0:2b:08:95:8c:94:38:37:ae:da:a7:80:01:36:7a:
         84:04:3d:70:96:ff:4c:85:6b:35:72:19:ca:a0:6f:85:92:cc:
         f8:a3:46:10:40:ce:40:8c:95:08:c9:f5:5a:0f:84:a1:e8:cc:
         ac:76:32:1a:dc:b3:bf:12:55:f6:7a:fd:0b:6e:e7:9f:d0:34:
         5b:06:b5:31:8b:fe:0e:b6:ff:ba:dd:9a:c4:68:a3:1c:3d:00:
         7b:37:80:d6:d6:91:16:4a:d0:ec:47:85:21:bd:c2:01:75:8c:
         15:f3:d7:3a:8c:e7:c7:e8:0e:9d:28:3f:76:ec:26:c3:e2:7c:
         f9:4c:fa:51:9d:fb:95:8a:54:31:13:e1:24:d6:1a:4c:e5:f9:
         d9:68:cc:16:0a:1a:4b:48:a1:1c:ef:cb:15:e7:3e:93:1a:27:
         01:1f:ef:26:03:8f:37:9c:ae:10:41:e4:b5:6a:69:6e:62:9c:
         6a:73:c6:e2:ba:83:35:0d:66:db:d2:25:a8:66:10:81:08:a7:
         2d:64:2d:44:d6:8b:43:3c:84:21:5b:a4:08:a8:e5:01:d7:f1:
         ba:82:a7:df:77:bf:c8:b0
-----BEGIN CERTIFICATE-----
MIIE4TCCAsmgAwIBAgICEAQwDQYJKoZIhvcNAQELBQAwRTELMAkGA1UEBhMCQVUx
EzARBgNVBAgMClNvbWUtU3RhdGUxITAfBgNVBAoMGEludGVybmV0IFdpZGdpdHMg
UHR5IEx0ZDAeFw0yMjA2MDQxOTMwMzFaFw0zMjA2MDExOTMwMzFaMGExCzAJBgNV
BAYTAkFVMRMwEQYDVQQIDApTb21lLVN0YXRlMSEwHwYDVQQKDBhJbnRlcm5ldCBX
aWRnaXRzIFB0eSBMdGQxGjAYBgNVBAMMEXd3dy5waW50bzIwMjIuY29tMIIBIjAN
BgkqhkiG9w0BAQEFAAOCAQ8AMIIBCgKCAQEA4KuZa7ccRvETCeUByEcbKxGJBi+/
qD2rU44IV1v1X2ed6tvYSP76JmYfvOUOWMd716Hl7XIOK3CFbSu55elpll8Rcuw8
XdQpR01ke5PkWwIi6aLFRovkxo26Cd4QU8od78ou9Qs20hqGhuxD+BlFE0+zqjMW
3nuy/NbJvRacAuOWk5VksPSRaObgWA5MVhQ/XwJZyTZ7ipgRB2w3mOP3lNd1789r
SW2hVjX8C2oKhHWku5S38tMECbPBjCLnxSW3WUfjuyI3a4vpo5jS5U7jkM89iP3A
Z5OaKVTbQ5bvCRBqTJCh3YhqTYPqJTyQr/vL6DU3NVoas8BRw8VqYryZvQIDAQAB
o4G+MIG7MAkGA1UdEwQCMAAwLAYJYIZIAYb4QgENBB8WHU9wZW5TU0wgR2VuZXJh
dGVkIENlcnRpZmljYXRlMB0GA1UdDgQWBBQYG0931eLQeDcejJT3jATTbI3vBTAf
BgNVHSMEGDAWgBRWvyO6Ktqtkm3bJ1XJkVwOrBS0QTBABgNVHREEOTA3ghF3d3cu
cGludG8yMDIyLmNvbYIRd3d3LnBpbnRvMjAyMi5vcmeCDyoucGludG8yMDIyLmNv
bTANBgkqhkiG9w0BAQsFAAOCAgEAUmQSSxgUdaM4/+pKR2Pndn4j2Ya/5HB5iOvC
MZZ00uJnRD0Ka/Oi2zJ+8M74QEBvZuTmvUGixE0QATsDmSc8AFgYzJbQ+kusOZTE
hmz3X/ZgxPQGltUGfrFBNCCDO7jEaZa/EeVAX37RvY0c6ZGCPWzJE0C6c/KSpIdf
JS9fAOn5BvLOr4iYf8zA0HNVrqHmI/e+CbId1vqFWBZ8ED/uWGFfZ03033mci4BO
BdBh7OjHpX8y2h7ThGbVDxNc5a5UvwMi7WCqm+emc0oaB1ZYyg5QWSrPkGsn6IZz
KdF2lclGfi5rq79frdH8JaqscaJbFWydiBB//7t5gRyYr5nAt1ommW5ABP+b5xRH
8le5EGf2VUgbMeYoEBnswZkrYfv7P/HgsCsIlYyUODeu2qeAATZ6hAQ9cJb/TIVr
NXIZyqBvhZLM+KNGEEDOQIyVCMn1Wg+EoejMrHYyGtyzvxJV9nr9C27nn9A0Wwa1
MYv+Drb/ut2axGijHD0AezeA1taRFkrQ7EeFIb3CAXWMFfPXOoznx+gOnSg/duwm
w+J8+Uz6UZ37lYpUMRPhJNYaTOX52WjMFgoaS0ihHO/LFec+kxonAR/vJgOPN5yu
EEHktWppbmKcanPG4rqDNQ1m29IlqGYQgQinLWQtRNaLQzyEIVukCKjlAdfxuoKn
33e/yLA=
-----END CERTIFICATE-----
