Certificate:
    Data:
        Version: 3 (0x2)
        Serial Number: 4101 (0x1005)
        Signature Algorithm: sha256WithRSAEncryption
        Issuer: C=AU, ST=Some-State, O=Internet Widgits Pty Ltd
        Validity
            Not Before: Jun  4 21:43:11 2022 GMT
            Not After : Jun  1 21:43:11 2032 GMT
        Subject: CN=www.wayf.up.pt
        Subject Public Key Info:
            Public Key Algorithm: rsaEncryption
                RSA Public-Key: (2048 bit)
                Modulus:
                    00:b6:8e:c7:73:f3:9a:c8:08:41:db:1d:ab:57:95:
                    bb:65:b4:3f:07:74:18:76:ab:b6:d0:13:22:d9:bc:
                    f4:14:16:f0:ff:a2:04:fa:2e:4b:2e:c4:cf:16:1e:
                    b0:94:d5:8c:b9:3b:01:56:70:99:96:47:8e:42:62:
                    f1:5f:f2:df:53:4d:d5:bf:0c:bb:1b:2a:37:0c:f7:
                    b5:87:24:ec:12:1d:06:03:09:d1:b8:18:8f:af:7d:
                    e4:37:5c:26:29:05:bc:f9:d5:7a:26:63:d7:7b:26:
                    92:db:24:51:6f:e4:65:1d:7b:a0:14:a1:e5:4b:58:
                    66:0a:4b:c2:5b:6b:a7:5c:d9:3b:0c:d5:46:a1:b9:
                    be:a9:2f:35:ef:44:60:a0:df:32:55:b4:26:83:a9:
                    0c:2b:b1:5b:a0:5f:09:14:cb:9c:b2:40:8a:6d:24:
                    af:0d:d5:96:bd:86:80:4c:fe:5f:b1:4b:bd:38:f7:
                    ac:ff:cd:7d:d1:e4:08:a9:28:6b:4a:0c:a2:ff:79:
                    74:54:3a:0f:3e:83:db:dd:6e:51:dd:29:a8:bc:98:
                    6b:85:0c:94:0f:f4:e5:79:f6:b8:dc:43:74:36:68:
                    02:e0:5c:a7:dd:2a:41:9c:f5:b2:9f:d3:b7:fc:aa:
                    cb:33:b3:0f:6a:f8:a4:54:77:42:d0:5a:bc:2e:82:
                    da:f7
                Exponent: 65537 (0x10001)
        X509v3 extensions:
            X509v3 Basic Constraints: 
                CA:FALSE
            Netscape Comment: 
                OpenSSL Generated Certificate
            X509v3 Subject Key Identifier: 
                38:20:2E:2A:F8:3D:BD:A3:95:C9:7F:59:1D:56:29:E6:92:84:DB:36
            X509v3 Authority Key Identifier: 
                keyid:56:BF:23:BA:2A:DA:AD:92:6D:DB:27:55:C9:91:5C:0E:AC:14:B4:41

    Signature Algorithm: sha256WithRSAEncryption
         4d:09:79:03:eb:99:b6:13:3a:9a:c0:0a:47:51:27:22:2a:7c:
         b4:8a:6a:35:3d:df:04:9c:0d:be:4e:af:47:91:03:b6:7b:e1:
         5c:a1:bf:e5:a7:c7:a0:79:5c:21:ff:50:5f:30:bc:ee:11:67:
         e3:71:eb:c9:eb:2d:72:65:97:83:76:45:c8:13:75:c9:c4:11:
         a1:03:66:5b:a0:18:e6:06:dd:f5:be:d3:74:c8:53:73:d1:bc:
         87:c3:c3:16:ae:ff:65:01:19:34:d1:f7:70:ac:c7:d2:0d:a0:
         5d:2a:56:2f:72:51:a1:a6:9e:73:b0:61:db:a9:52:ba:ad:7e:
         76:13:43:b3:a5:01:3d:88:b2:c0:47:6b:c2:2e:18:26:aa:02:
         8e:c4:4d:d6:21:b2:31:ca:c9:20:e7:02:8a:e9:1c:ca:85:b8:
         ff:b5:5f:1e:ec:36:68:b0:2f:29:31:c6:3e:60:71:c0:f6:16:
         bf:a8:71:75:46:b6:5e:66:04:23:1b:b6:e6:91:23:a2:de:ce:
         3e:8a:c5:34:7b:d2:8d:89:9e:77:8b:96:58:17:b7:5f:b1:0c:
         88:c7:ff:69:28:4d:5f:83:46:0e:e9:c8:5a:cd:e5:e9:0d:38:
         24:16:bf:c5:c3:1e:51:f7:71:a9:c4:43:fa:6a:23:8d:05:d3:
         cf:dc:f5:ad:35:f2:cc:16:71:b5:5c:5e:3e:ac:5b:20:7a:93:
         be:5f:e2:a9:a7:f2:92:b6:a5:af:8e:0b:12:bb:1b:55:82:43:
         60:fd:03:43:5e:f7:69:48:04:95:d2:73:ac:61:25:f6:77:1b:
         9d:66:b0:f5:39:e1:9b:c9:53:94:e8:1d:bf:e4:4f:a7:a5:d6:
         37:56:00:1f:32:4b:f0:d5:f6:62:34:3c:04:8b:06:84:c3:44:
         15:c2:5d:f1:6a:99:db:1d:8e:e0:06:b4:76:4c:2c:5d:0d:0b:
         8a:07:a6:86:2b:85:5d:5b:58:39:e5:dd:d7:f3:f9:9b:d2:08:
         bf:1b:b7:75:a1:90:5e:25:dd:59:88:ad:26:08:76:45:e9:0b:
         1f:d0:2f:02:18:f1:e6:ad:e4:6b:0b:cf:bd:5b:eb:93:da:03:
         14:e4:d5:08:2b:23:1a:9d:72:ea:b2:92:1d:d4:2f:cc:32:99:
         a8:30:16:aa:f9:26:ed:6b:7c:59:16:de:99:92:d1:9d:0b:a5:
         87:2a:80:07:b3:79:b5:50:bc:b5:72:ed:94:58:97:c4:42:c2:
         a6:19:9d:ae:d2:67:17:32:65:e1:d7:0d:3c:fb:5e:c0:99:75:
         82:0c:a7:50:e7:23:89:83:ab:3e:08:45:80:62:03:9f:f2:ad:
         aa:bb:30:7e:2c:b6:11:83
-----BEGIN CERTIFICATE-----
MIIEVTCCAj2gAwIBAgICEAUwDQYJKoZIhvcNAQELBQAwRTELMAkGA1UEBhMCQVUx
EzARBgNVBAgMClNvbWUtU3RhdGUxITAfBgNVBAoMGEludGVybmV0IFdpZGdpdHMg
UHR5IEx0ZDAeFw0yMjA2MDQyMTQzMTFaFw0zMjA2MDEyMTQzMTFaMBkxFzAVBgNV
BAMMDnd3dy53YXlmLnVwLnB0MIIBIjANBgkqhkiG9w0BAQEFAAOCAQ8AMIIBCgKC
AQEAto7Hc/OayAhB2x2rV5W7ZbQ/B3QYdqu20BMi2bz0FBbw/6IE+i5LLsTPFh6w
lNWMuTsBVnCZlkeOQmLxX/LfU03Vvwy7Gyo3DPe1hyTsEh0GAwnRuBiPr33kN1wm
KQW8+dV6JmPXeyaS2yRRb+RlHXugFKHlS1hmCkvCW2unXNk7DNVGobm+qS8170Rg
oN8yVbQmg6kMK7FboF8JFMucskCKbSSvDdWWvYaATP5fsUu9OPes/8190eQIqShr
Sgyi/3l0VDoPPoPb3W5R3SmovJhrhQyUD/Tlefa43EN0NmgC4Fyn3SpBnPWyn9O3
/KrLM7MPavikVHdC0Fq8LoLa9wIDAQABo3sweTAJBgNVHRMEAjAAMCwGCWCGSAGG
+EIBDQQfFh1PcGVuU1NMIEdlbmVyYXRlZCBDZXJ0aWZpY2F0ZTAdBgNVHQ4EFgQU
OCAuKvg9vaOVyX9ZHVYp5pKE2zYwHwYDVR0jBBgwFoAUVr8juirarZJt2ydVyZFc
DqwUtEEwDQYJKoZIhvcNAQELBQADggIBAE0JeQPrmbYTOprACkdRJyIqfLSKajU9
3wScDb5Or0eRA7Z74Vyhv+Wnx6B5XCH/UF8wvO4RZ+Nx68nrLXJll4N2RcgTdcnE
EaEDZlugGOYG3fW+03TIU3PRvIfDwxau/2UBGTTR93Csx9INoF0qVi9yUaGmnnOw
YdupUrqtfnYTQ7OlAT2IssBHa8IuGCaqAo7ETdYhsjHKySDnAorpHMqFuP+1Xx7s
NmiwLykxxj5gccD2Fr+ocXVGtl5mBCMbtuaRI6Lezj6KxTR70o2JnneLllgXt1+x
DIjH/2koTV+DRg7pyFrN5ekNOCQWv8XDHlH3canEQ/pqI40F08/c9a018swWcbVc
Xj6sWyB6k75f4qmn8pK2pa+OCxK7G1WCQ2D9A0Ne92lIBJXSc6xhJfZ3G51msPU5
4ZvJU5ToHb/kT6el1jdWAB8yS/DV9mI0PASLBoTDRBXCXfFqmdsdjuAGtHZMLF0N
C4oHpoYrhV1bWDnl3dfz+ZvSCL8bt3WhkF4l3VmIrSYIdkXpCx/QLwIY8eat5GsL
z71b65PaAxTk1QgrIxqdcuqykh3UL8wymagwFqr5Ju1rfFkW3pmS0Z0LpYcqgAez
ebVQvLVy7ZRYl8RCwqYZna7SZxcyZeHXDTz7XsCZdYIMp1DnI4mDqz4IRYBiA5/y
raq7MH4sthGD
-----END CERTIFICATE-----
